; Function Attrs: mustprogress uwtable
define void @_ZN5rfb_t18handle_set_addressE9command_t(ptr nocapture noundef nonnull writeonly align 8 dereferenceable(168) %0, ptr noundef %1) #0 align 2 personality ptr @__gxx_personality_v0 {
  %3 = alloca i64, align 8
  %4 = alloca %"class.std::__cxx11::basic_string", align 8
  %5 = alloca %"class.std::__cxx11::basic_string", align 8
  %6 = alloca %"class.std::__cxx11::basic_string", align 8
  %7 = getelementptr inbounds i8, ptr %1, i64 8
  %8 = load i64, ptr %7, align 8
  %9 = and i64 %8, 281474976710655
  %10 = getelementptr inbounds i8, ptr %0, i64 72
  store i64 %9, ptr %10, align 8
  %11 = and i64 %8, 255
  %.not = icmp eq i64 %11, 0
  br i1 %.not, label %24, label %12

12:                                               ; preds = %2
  %13 = tail call ptr @__cxa_allocate_exception(i64 16) #23
  call void @_ZNSt7__cxx119to_stringEi(ptr dead_on_unwind nonnull writable sret(%"class.std::__cxx11::basic_string") align 8 %6, i32 noundef 256) #23
  invoke void @_ZStplIcSt11char_traitsIcESaIcEENSt7__cxx1112basic_stringIT_T0_T1_EEPKS5_OS8_(ptr dead_on_unwind nonnull writable sret(%"class.std::__cxx11::basic_string") align 8 %5, ptr noundef nonnull @.str.17, ptr noundef nonnull align 8 dereferenceable(32) %6)
          to label %14 unwind label %.thread

14:                                               ; preds = %12
  invoke void @_ZStplIcSt11char_traitsIcESaIcEENSt7__cxx1112basic_stringIT_T0_T1_EEOS8_PKS5_(ptr dead_on_unwind nonnull writable sret(%"class.std::__cxx11::basic_string") align 8 %4, ptr noundef nonnull align 8 dereferenceable(32) %5, ptr noundef nonnull @.str.18)
          to label %15 unwind label %18

15:                                               ; preds = %14
  invoke void @_ZNSt13runtime_errorC1ERKNSt7__cxx1112basic_stringIcSt11char_traitsIcESaIcEEE(ptr noundef nonnull align 8 dereferenceable(16) %13, ptr noundef nonnull align 8 dereferenceable(32) %4)
          to label %16 unwind label %20

16:                                               ; preds = %15
  invoke void @__cxa_throw(ptr nonnull %13, ptr nonnull @_ZTISt13runtime_error, ptr nonnull @_ZNSt13runtime_errorD1Ev) #24
          to label %37 unwind label %20

.thread:                                          ; preds = %12
  %17 = landingpad { ptr, i32 }
          cleanup
  call void @_ZNSt7__cxx1112basic_stringIcSt11char_traitsIcESaIcEED2Ev(ptr noundef nonnull align 8 dereferenceable(32) %6) #23
  br label %23

18:                                               ; preds = %14
  %19 = landingpad { ptr, i32 }
          cleanup
  br label %22

20:                                               ; preds = %16, %15
  %.0 = phi i1 [ false, %16 ], [ true, %15 ]
  %21 = landingpad { ptr, i32 }
          cleanup
  call void @_ZNSt7__cxx1112basic_stringIcSt11char_traitsIcESaIcEED2Ev(ptr noundef nonnull align 8 dereferenceable(32) %4) #23
  br label %22

22:                                               ; preds = %18, %20
  %.pn = phi { ptr, i32 } [ %21, %20 ], [ %19, %18 ]
  %.1 = phi i1 [ %.0, %20 ], [ true, %18 ]
  call void @_ZNSt7__cxx1112basic_stringIcSt11char_traitsIcESaIcEED2Ev(ptr noundef nonnull align 8 dereferenceable(32) %5) #23
  call void @_ZNSt7__cxx1112basic_stringIcSt11char_traitsIcESaIcEED2Ev(ptr noundef nonnull align 8 dereferenceable(32) %6) #23
  br i1 %.1, label %23, label %36

23:                                               ; preds = %.thread, %22
  %.pn.pn12 = phi { ptr, i32 } [ %17, %.thread ], [ %.pn, %22 ]
  call void @__cxa_free_exception(ptr %13) #23
  br label %36

24:                                               ; preds = %2
  %25 = load ptr, ptr %1, align 8
  %26 = getelementptr inbounds i8, ptr %0, i64 64
  store ptr %25, ptr %26, align 8
  %27 = load i64, ptr %7, align 8
  %28 = and i64 %27, -281474976710656
  %29 = or disjoint i64 %28, 1
  call void @llvm.lifetime.start.p0(i64 8, ptr nonnull %3)
  store i64 %29, ptr %3, align 8
  %30 = getelementptr inbounds i8, ptr %1, i64 32
  %31 = load ptr, ptr %30, align 8
  %.not.i.i.i = icmp eq ptr %31, null
  br i1 %.not.i.i.i, label %32, label %_ZN9command_t7respondEm.exit

32:                                               ; preds = %24
  tail call void @_ZSt25__throw_bad_function_callv() #24
  unreachable

_ZN9command_t7respondEm.exit:                     ; preds = %24
  %33 = getelementptr inbounds i8, ptr %1, i64 16
  %34 = getelementptr inbounds i8, ptr %1, i64 40
  %35 = load ptr, ptr %34, align 8
  call void %35(ptr noundef nonnull align 8 dereferenceable(16) %33, ptr noundef nonnull align 8 dereferenceable(8) %3)
  call void @llvm.lifetime.end.p0(i64 8, ptr nonnull %3)
  ret void

36:                                               ; preds = %22, %23
  %.pn.pn11 = phi { ptr, i32 } [ %.pn, %22 ], [ %.pn.pn12, %23 ]
  resume { ptr, i32 } %.pn.pn11

37:                                               ; preds = %16
  unreachable
}